; Function Attrs: nounwind uwtable
define internal fastcc range(i32 -2147483648, 2) i32 @r_Step_4(ptr noundef initializes((24, 28)) %0) unnamed_addr #0 {
  %2 = getelementptr inbounds nuw i8, ptr %0, i64 8
  %3 = load i32, ptr %2, align 8
  %4 = getelementptr inbounds nuw i8, ptr %0, i64 24
  store i32 %3, ptr %4, align 8
  %5 = add i32 %3, -1
  %6 = getelementptr inbounds nuw i8, ptr %0, i64 16
  %7 = load i32, ptr %6, align 8
  %.not = icmp sgt i32 %5, %7
  br i1 %.not, label %8, label %.thread62

8:                                                ; preds = %1
  %9 = load ptr, ptr %0, align 8
  %10 = sext i32 %5 to i64
  %11 = getelementptr inbounds i8, ptr %9, i64 %10
  %12 = load i8, ptr %11, align 1
  %13 = zext i8 %12 to i32
  %.mask = and i32 %13, 224
  %.not53 = icmp eq i32 %.mask, 96
  br i1 %.not53, label %14, label %.thread62

14:                                               ; preds = %8
  %15 = and i32 %13, 31
  %16 = shl nuw i32 1, %15
  %17 = and i32 %16, 3961384
  %.not54 = icmp eq i32 %17, 0
  br i1 %.not54, label %.thread62, label %18

18:                                               ; preds = %14
  %19 = tail call i32 @find_among_b(ptr noundef nonnull %0, ptr noundef nonnull @a_5, i32 noundef 19) #3
  %.not55 = icmp eq i32 %19, 0
  br i1 %.not55, label %.thread62, label %20

20:                                               ; preds = %18
  %21 = load i32, ptr %2, align 8
  %22 = getelementptr inbounds nuw i8, ptr %0, i64 20
  store i32 %21, ptr %22, align 4
  %23 = getelementptr i8, ptr %0, i64 40
  %.val61 = load ptr, ptr %23, align 8
  %.val61.val = load i32, ptr %.val61, align 4
  %.not.i.not = icmp sgt i32 %.val61.val, %21
  br i1 %.not.i.not, label %.thread62, label %24

24:                                               ; preds = %20
  switch i32 %19, label %39 [
    i32 1, label %25
    i32 2, label %28
  ]

25:                                               ; preds = %24
  %26 = tail call i32 @slice_del(ptr noundef nonnull %0) #3
  %27 = icmp sgt i32 %26, -1
  br i1 %27, label %39, label %.thread62

28:                                               ; preds = %24
  %29 = load i32, ptr %6, align 8
  %.not57 = icmp sgt i32 %21, %29
  br i1 %.not57, label %30, label %.thread62

30:                                               ; preds = %28
  %31 = load ptr, ptr %0, align 8
  %32 = add nsw i32 %21, -1
  %33 = sext i32 %32 to i64
  %34 = getelementptr inbounds i8, ptr %31, i64 %33
  %35 = load i8, ptr %34, align 1
  %.off = add i8 %35, -115
  %switch = icmp ult i8 %.off, 2
  br i1 %switch, label %36, label %.thread62

36:                                               ; preds = %30
  store i32 %32, ptr %2, align 8
  %37 = tail call i32 @slice_del(ptr noundef nonnull %0) #3
  %38 = icmp sgt i32 %37, -1
  br i1 %38, label %39, label %.thread62

39:                                               ; preds = %36, %25, %24
  br label %.thread62

.thread62:                                        ; preds = %30, %28, %18, %1, %8, %14, %25, %36, %20, %39
  %.0 = phi i32 [ 1, %39 ], [ %37, %36 ], [ %26, %25 ], [ 0, %20 ], [ 0, %14 ], [ 0, %8 ], [ 0, %1 ], [ 0, %18 ], [ 0, %28 ], [ 0, %30 ]
  ret i32 %.0
}